Certificate:
    Data:
        Version: 3 (0x2)
        Serial Number: 4096 (0x1000)
    Signature Algorithm: sha256WithRSAEncryption
        Issuer: C=AU, ST=Some-State, O=Syracuse, OU=School, CN=MeghaJakhotia
        Validity
            Not Before: Apr 21 21:50:01 2020 GMT
            Not After : Apr 21 21:50:01 2021 GMT
        Subject: C=AU, ST=Some-State, O=Internet Widgits Pty Ltd, CN=jakhotia-vpnserver2020.com
        Subject Public Key Info:
            Public Key Algorithm: rsaEncryption
                Public-Key: (1024 bit)
                Modulus:
                    00:dd:04:80:22:03:85:cc:50:1c:13:45:21:4c:b3:
                    9a:ed:87:9c:9b:fd:8f:c8:44:2f:d9:e0:7a:bc:8d:
                    2d:65:d7:0f:ed:e2:f3:7f:fe:51:ac:f5:51:c8:49:
                    7e:8e:00:1c:f8:ef:14:0c:02:dc:50:10:83:2b:c6:
                    5c:fe:e4:62:f2:a1:3f:e8:d5:05:b9:77:e2:c8:4e:
                    56:6a:c2:73:c7:c3:45:6a:06:fa:ab:df:35:9a:11:
                    7c:ea:2c:50:0c:93:36:c4:21:ca:2c:cf:3a:44:ae:
                    c9:3f:a6:04:0c:d1:f3:70:63:8d:0b:dd:40:e2:0e:
                    3b:35:81:1a:82:6f:21:20:bd
                Exponent: 65537 (0x10001)
        X509v3 extensions:
            X509v3 Basic Constraints: 
                CA:FALSE
            Netscape Comment: 
                OpenSSL Generated Certificate
            X509v3 Subject Key Identifier: 
                1B:CE:AD:08:A7:05:3C:75:8B:75:96:15:CA:A7:2C:35:EB:07:BA:AF
            X509v3 Authority Key Identifier: 
                keyid:56:F0:57:8D:8E:7E:28:31:96:01:18:D7:0E:0C:9A:0E:BC:B7:BA:B1

    Signature Algorithm: sha256WithRSAEncryption
         76:d5:5b:3f:d7:79:e2:41:6a:ff:f3:1a:a6:b1:ca:f6:b5:49:
         17:ad:a4:3c:7d:a9:54:1b:7b:54:78:0e:a8:d8:ca:c6:46:18:
         00:cd:7c:7c:df:31:c8:82:37:d0:95:12:20:1f:66:40:59:98:
         c9:eb:e3:4f:33:81:25:10:8b:2e:26:78:29:b6:de:36:97:c4:
         ae:1f:80:3f:cf:c1:d5:3a:20:41:1e:84:e5:4a:3f:87:a7:c2:
         96:10:00:48:12:43:fa:d7:67:62:8c:6c:03:df:eb:34:1a:ec:
         86:c5:10:de:e1:a2:c2:d1:2c:6a:16:91:30:b0:b9:87:56:32:
         19:af:32:49:52:f2:98:25:12:39:38:6c:ff:6f:fb:43:0e:f1:
         33:94:c6:9e:31:ca:20:2d:27:fd:36:e9:f3:0e:9c:12:e0:69:
         87:dc:95:23:84:68:87:ab:dc:44:a2:34:9d:3b:d4:18:26:49:
         a8:36:98:86:c2:55:75:3e:c0:c8:b8:a4:59:4f:f2:ff:72:de:
         e9:d4:e9:8d:39:84:d8:31:bb:74:2e:77:81:e3:08:97:cb:fe:
         ba:9a:6b:f8:04:c1:8e:55:63:99:26:3a:8a:43:8f:8b:3e:36:
         01:f5:04:03:01:2e:35:d9:83:d8:47:77:64:43:f8:33:83:ba:
         75:4c:20:1c
-----BEGIN CERTIFICATE-----
MIIDOzCCAiOgAwIBAgICEAAwDQYJKoZIhvcNAQELBQAwXjELMAkGA1UEBhMCQVUx
EzARBgNVBAgMClNvbWUtU3RhdGUxETAPBgNVBAoMCFN5cmFjdXNlMQ8wDQYDVQQL
DAZTY2hvb2wxFjAUBgNVBAMMDU1lZ2hhSmFraG90aWEwHhcNMjAwNDIxMjE1MDAx
WhcNMjEwNDIxMjE1MDAxWjBqMQswCQYDVQQGEwJBVTETMBEGA1UECAwKU29tZS1T
dGF0ZTEhMB8GA1UECgwYSW50ZXJuZXQgV2lkZ2l0cyBQdHkgTHRkMSMwIQYDVQQD
DBpqYWtob3RpYS12cG5zZXJ2ZXIyMDIwLmNvbTCBnzANBgkqhkiG9w0BAQEFAAOB
jQAwgYkCgYEA3QSAIgOFzFAcE0UhTLOa7Yecm/2PyEQv2eB6vI0tZdcP7eLzf/5R
rPVRyEl+jgAc+O8UDALcUBCDK8Zc/uRi8qE/6NUFuXfiyE5WasJzx8NFagb6q981
mhF86ixQDJM2xCHKLM86RK7JP6YEDNHzcGONC91A4g47NYEagm8hIL0CAwEAAaN7
MHkwCQYDVR0TBAIwADAsBglghkgBhvhCAQ0EHxYdT3BlblNTTCBHZW5lcmF0ZWQg
Q2VydGlmaWNhdGUwHQYDVR0OBBYEFBvOrQinBTx1i3WWFcqnLDXrB7qvMB8GA1Ud
IwQYMBaAFFbwV42OfigxlgEY1w4Mmg68t7qxMA0GCSqGSIb3DQEBCwUAA4IBAQB2
1Vs/13niQWr/8xqmscr2tUkXraQ8falUG3tUeA6o2MrGRhgAzXx83zHIgjfQlRIg
H2ZAWZjJ6+NPM4ElEIsuJngptt42l8SuH4A/z8HVOiBBHoTlSj+Hp8KWEABIEkP6
12dijGwD3+s0GuyGxRDe4aLC0SxqFpEwsLmHVjIZrzJJUvKYJRI5OGz/b/tDDvEz
lMaeMcogLSf9NunzDpwS4GmH3JUjhGiHq9xEojSdO9QYJkmoNpiGwlV1PsDIuKRZ
T/L/ct7p1OmNOYTYMbt0LneB4wiXy/66mmv4BMGOVWOZJjqKQ4+LPjYB9QQDAS41
2YPYR3dkQ/gzg7p1TCAc
-----END CERTIFICATE-----
